; Function Attrs: nounwind uwtable
define ptr @Ivy_CanonLatch(ptr noundef initializes((56, 72)) %0, ptr noundef %1, i32 noundef %2) local_unnamed_addr #0 {
  %4 = ptrtoint ptr %1 to i64
  %5 = and i64 %4, -2
  %6 = inttoptr i64 %5 to ptr
  %7 = and i64 %4, 1
  %8 = icmp eq i64 %7, 0
  %switch.selectcmp.i = icmp eq i32 %2, 2
  %switch.select.i = select i1 %switch.selectcmp.i, i32 1, i32 3
  %switch.selectcmp6.i = icmp eq i32 %2, 1
  %switch.select7.i = select i1 %switch.selectcmp6.i, i32 2, i32 %switch.select.i
  %.0.i = select i1 %8, i32 %2, i32 %switch.select7.i
  %9 = getelementptr inbounds nuw i8, ptr %0, i64 48
  %10 = load i32, ptr %9, align 8
  %11 = and i32 %10, -1552
  %12 = shl i32 %.0.i, 9
  %13 = and i32 %12, 1536
  %14 = or disjoint i32 %13, %11
  %15 = or disjoint i32 %14, 4
  store i32 %15, ptr %9, align 8
  %16 = getelementptr inbounds nuw i8, ptr %0, i64 56
  store ptr %6, ptr %16, align 8, !tbaa !3
  %17 = getelementptr inbounds nuw i8, ptr %0, i64 64
  store ptr null, ptr %17, align 8, !tbaa !10
  %18 = getelementptr inbounds nuw i8, ptr %0, i64 40
  %19 = tail call ptr @Ivy_TableLookup(ptr noundef %0, ptr noundef nonnull %18) #2
  %20 = icmp eq ptr %19, null
  br i1 %20, label %21, label %23

21:                                               ; preds = %3
  %22 = tail call ptr @Ivy_ObjCreate(ptr noundef nonnull %0, ptr noundef nonnull %18) #2
  br label %23

23:                                               ; preds = %21, %3
  %.0 = phi ptr [ %22, %21 ], [ %19, %3 ]
  %24 = ptrtoint ptr %.0 to i64
  %25 = xor i64 %7, %24
  %26 = inttoptr i64 %25 to ptr
  ret ptr %26
}